target datalayout = "e-m:e-p270:32:32-p271:32:32-p272:64:64-i64:64-i128:128-f80:128-n8:16:32:64-S128"
target triple = "x86_64-pc-linux-gnu"

@j2d_glVertex2f = external global ptr, align 8
@j2d_glVertex2i = external global ptr, align 8

; Function Attrs: nounwind uwtable
define hidden void @OGLRenderer_DrawRect(ptr noundef %0, i32 noundef %1, i32 noundef %2, i32 noundef %3, i32 noundef %4) #0 {
  %6 = alloca ptr, align 8
  %7 = alloca i32, align 4
  %8 = alloca i32, align 4
  %9 = alloca i32, align 4
  %10 = alloca i32, align 4
  %11 = alloca float, align 4
  %12 = alloca float, align 4
  %13 = alloca float, align 4
  %14 = alloca float, align 4
  store ptr %0, ptr %6, align 8
  store i32 %1, ptr %7, align 4
  store i32 %2, ptr %8, align 4
  store i32 %3, ptr %9, align 4
  store i32 %4, ptr %10, align 4
  %15 = load i32, ptr %9, align 4
  %16 = icmp slt i32 %15, 0
  br i1 %16, label %20, label %17

17:                                               ; preds = %5
  %18 = load i32, ptr %10, align 4
  %19 = icmp slt i32 %18, 0
  br i1 %19, label %20, label %21

20:                                               ; preds = %17, %5
  br label %104

21:                                               ; preds = %17
  %22 = load ptr, ptr %6, align 8
  %23 = icmp eq ptr %22, null
  br i1 %23, label %24, label %25

24:                                               ; preds = %21
  br label %104

25:                                               ; preds = %21
  br label %26

26:                                               ; preds = %25
  br label %27

27:                                               ; preds = %26
  br label %28

28:                                               ; preds = %27
  %29 = load i32, ptr %9, align 4
  %30 = icmp slt i32 %29, 2
  br i1 %30, label %34, label %31

31:                                               ; preds = %28
  %32 = load i32, ptr %10, align 4
  %33 = icmp slt i32 %32, 2
  br i1 %33, label %34, label %61

34:                                               ; preds = %31, %28
  call void @OGLRenderQueue_CheckPreviousOp(i32 noundef 7)
  br label %35

35:                                               ; preds = %34
  %36 = load ptr, ptr @j2d_glVertex2i, align 8
  %37 = load i32, ptr %7, align 4
  %38 = load i32, ptr %8, align 4
  call void %36(i32 noundef %37, i32 noundef %38)
  %39 = load ptr, ptr @j2d_glVertex2i, align 8
  %40 = load i32, ptr %7, align 4
  %41 = load i32, ptr %9, align 4
  %42 = add nsw i32 %41, 1
  %43 = add nsw i32 %40, %42
  %44 = load i32, ptr %8, align 4
  call void %39(i32 noundef %43, i32 noundef %44)
  %45 = load ptr, ptr @j2d_glVertex2i, align 8
  %46 = load i32, ptr %7, align 4
  %47 = load i32, ptr %9, align 4
  %48 = add nsw i32 %47, 1
  %49 = add nsw i32 %46, %48
  %50 = load i32, ptr %8, align 4
  %51 = load i32, ptr %10, align 4
  %52 = add nsw i32 %51, 1
  %53 = add nsw i32 %50, %52
  call void %45(i32 noundef %49, i32 noundef %53)
  %54 = load ptr, ptr @j2d_glVertex2i, align 8
  %55 = load i32, ptr %7, align 4
  %56 = load i32, ptr %8, align 4
  %57 = load i32, ptr %10, align 4
  %58 = add nsw i32 %57, 1
  %59 = add nsw i32 %56, %58
  call void %54(i32 noundef %55, i32 noundef %59)
  br label %60

60:                                               ; preds = %35
  br label %104

61:                                               ; preds = %31
  %62 = load i32, ptr %7, align 4
  %63 = sitofp i32 %62 to float
  %64 = fadd float %63, 0x3FC99999A0000000
  store float %64, ptr %11, align 4
  %65 = load i32, ptr %8, align 4
  %66 = sitofp i32 %65 to float
  %67 = fadd float %66, 0x3FC99999A0000000
  store float %67, ptr %12, align 4
  %68 = load float, ptr %11, align 4
  %69 = load i32, ptr %9, align 4
  %70 = sitofp i32 %69 to float
  %71 = fadd float %68, %70
  store float %71, ptr %13, align 4
  %72 = load float, ptr %12, align 4
  %73 = load i32, ptr %10, align 4
  %74 = sitofp i32 %73 to float
  %75 = fadd float %72, %74
  store float %75, ptr %14, align 4
  call void @OGLRenderQueue_CheckPreviousOp(i32 noundef 1)
  %76 = load ptr, ptr @j2d_glVertex2f, align 8
  %77 = load float, ptr %11, align 4
  %78 = load float, ptr %12, align 4
  call void %76(float noundef %77, float noundef %78)
  %79 = load ptr, ptr @j2d_glVertex2f, align 8
  %80 = load float, ptr %13, align 4
  %81 = fadd float %80, 1.000000e+00
  %82 = load float, ptr %12, align 4
  call void %79(float noundef %81, float noundef %82)
  %83 = load ptr, ptr @j2d_glVertex2f, align 8
  %84 = load float, ptr %13, align 4
  %85 = load float, ptr %12, align 4
  %86 = fadd float %85, 1.000000e+00
  call void %83(float noundef %84, float noundef %86)
  %87 = load ptr, ptr @j2d_glVertex2f, align 8
  %88 = load float, ptr %13, align 4
  %89 = load float, ptr %14, align 4
  call void %87(float noundef %88, float noundef %89)
  %90 = load ptr, ptr @j2d_glVertex2f, align 8
  %91 = load float, ptr %11, align 4
  %92 = load float, ptr %14, align 4
  call void %90(float noundef %91, float noundef %92)
  %93 = load ptr, ptr @j2d_glVertex2f, align 8
  %94 = load float, ptr %13, align 4
  %95 = fadd float %94, 1.000000e+00
  %96 = load float, ptr %14, align 4
  call void %93(float noundef %95, float noundef %96)
  %97 = load ptr, ptr @j2d_glVertex2f, align 8
  %98 = load float, ptr %11, align 4
  %99 = load float, ptr %12, align 4
  %100 = fadd float %99, 1.000000e+00
  call void %97(float noundef %98, float noundef %100)
  %101 = load ptr, ptr @j2d_glVertex2f, align 8
  %102 = load float, ptr %11, align 4
  %103 = load float, ptr %14, align 4
  call void %101(float noundef %102, float noundef %103)
  br label %104

104:                                              ; preds = %61, %60, %24, %20
  ret void
}