; Function Attrs: nounwind uwtable
define hidden void @OGLRenderer_DrawRect(ptr noundef readnone %0, i32 noundef %1, i32 noundef %2, i32 noundef %3, i32 noundef %4) local_unnamed_addr #0 {
  %6 = or i32 %4, %3
  %or.cond = icmp slt i32 %6, 0
  %7 = icmp eq ptr %0, null
  %or.cond5 = or i1 %7, %or.cond
  br i1 %or.cond5, label %39, label %8

8:                                                ; preds = %5
  %9 = icmp slt i32 %3, 2
  %10 = icmp slt i32 %4, 2
  %or.cond3 = or i1 %9, %10
  br i1 %or.cond3, label %11, label %20

11:                                               ; preds = %8
  tail call void @OGLRenderQueue_CheckPreviousOp(i32 noundef 7) #4
  %12 = load ptr, ptr @j2d_glVertex2i, align 8
  tail call void %12(i32 noundef %1, i32 noundef %2) #4
  %13 = load ptr, ptr @j2d_glVertex2i, align 8
  %14 = add i32 %1, 1
  %15 = add i32 %14, %3
  tail call void %13(i32 noundef %15, i32 noundef %2) #4
  %16 = load ptr, ptr @j2d_glVertex2i, align 8
  %17 = add i32 %2, 1
  %18 = add i32 %17, %4
  tail call void %16(i32 noundef %15, i32 noundef %18) #4
  %19 = load ptr, ptr @j2d_glVertex2i, align 8
  tail call void %19(i32 noundef %1, i32 noundef %18) #4
  br label %39

20:                                               ; preds = %8
  %21 = sitofp i32 %1 to float
  %22 = fadd float %21, 0x3FC99999A0000000
  %23 = sitofp i32 %2 to float
  %24 = fadd float %23, 0x3FC99999A0000000
  %25 = uitofp nneg i32 %3 to float
  %26 = fadd float %22, %25
  %27 = uitofp nneg i32 %4 to float
  %28 = fadd float %24, %27
  tail call void @OGLRenderQueue_CheckPreviousOp(i32 noundef 1) #4
  %29 = load ptr, ptr @j2d_glVertex2f, align 8
  tail call void %29(float noundef %22, float noundef %24) #4
  %30 = load ptr, ptr @j2d_glVertex2f, align 8
  %31 = fadd float %26, 1.000000e+00
  tail call void %30(float noundef %31, float noundef %24) #4
  %32 = load ptr, ptr @j2d_glVertex2f, align 8
  %33 = fadd float %24, 1.000000e+00
  tail call void %32(float noundef %26, float noundef %33) #4
  %34 = load ptr, ptr @j2d_glVertex2f, align 8
  tail call void %34(float noundef %26, float noundef %28) #4
  %35 = load ptr, ptr @j2d_glVertex2f, align 8
  tail call void %35(float noundef %22, float noundef %28) #4
  %36 = load ptr, ptr @j2d_glVertex2f, align 8
  tail call void %36(float noundef %31, float noundef %28) #4
  %37 = load ptr, ptr @j2d_glVertex2f, align 8
  tail call void %37(float noundef %22, float noundef %33) #4
  %38 = load ptr, ptr @j2d_glVertex2f, align 8
  tail call void %38(float noundef %22, float noundef %28) #4
  br label %39

39:                                               ; preds = %5, %20, %11
  ret void
}